target datalayout = "e-m:e-p270:32:32-p271:32:32-p272:64:64-i64:64-i128:128-f80:128-n8:16:32:64-S128"
target triple = "x86_64-pc-linux-gnu"

%struct.strvec = type { ptr, i64, i64 }
%struct.sparse_checkout_set_opts = type { i32, i32, i32, i32 }

@the_repository = external global ptr, align 8
@core_sparse_checkout_cone = external global i32, align 4
@__const.sparse_checkout_set.default_patterns = private unnamed_addr constant [3 x ptr] [ptr @.str.24, ptr @.str.25, ptr null], align 16
@set_opts = internal global %struct.sparse_checkout_set_opts zeroinitializer, align 4
@__const.sparse_checkout_set.patterns = private unnamed_addr constant %struct.strvec { ptr @empty_strvec, i64 0, i64 0 }, align 8
@builtin_sparse_checkout_set_usage = internal constant [2 x ptr] [ptr @.str.47, ptr null], align 16

; Function Attrs: nounwind uwtable
define internal i32 @sparse_checkout_set(i32 noundef %0, ptr noundef %1, ptr noundef %2, ptr noundef %3) #0 {
  %5 = alloca i32, align 4
  %6 = alloca i32, align 4
  %7 = alloca ptr, align 8
  %8 = alloca ptr, align 8
  %9 = alloca ptr, align 8
  %10 = alloca i32, align 4
  %11 = alloca [3 x ptr], align 16
  %12 = alloca %struct.strvec, align 8
  %13 = alloca i32, align 4
  %14 = alloca i32, align 4
  %15 = alloca i32, align 4
  %16 = alloca i32, align 4
  store i32 %0, ptr %6, align 4, !tbaa !4
  store ptr %1, ptr %7, align 8, !tbaa !8
  store ptr %2, ptr %8, align 8, !tbaa !11
  store ptr %3, ptr %9, align 8, !tbaa !13
  call void @llvm.lifetime.start.p0(i64 4, ptr %10) #9
  store i32 2, ptr %10, align 4, !tbaa !4
  call void @llvm.lifetime.start.p0(i64 24, ptr %11) #9
  call void @llvm.memcpy.p0.p0.i64(ptr align 16 %11, ptr align 16 @__const.sparse_checkout_set.default_patterns, i64 24, i1 false)
  call void @llvm.lifetime.start.p0(i64 24, ptr %12) #9
  call void @llvm.memcpy.p0.p0.i64(ptr align 8 %12, ptr align 8 @__const.sparse_checkout_set.patterns, i64 24, i1 false)
  call void @llvm.lifetime.start.p0(i64 4, ptr %13) #9
  call void @setup_work_tree()
  %17 = load ptr, ptr @the_repository, align 8, !tbaa !13
  %18 = call i32 @repo_read_index(ptr noundef %17)
  store i32 -1, ptr @set_opts, align 4, !tbaa !71
  store i32 -1, ptr getelementptr inbounds nuw (%struct.sparse_checkout_set_opts, ptr @set_opts, i32 0, i32 1), align 4, !tbaa !73
  %19 = load i32, ptr %6, align 4, !tbaa !4
  %20 = load ptr, ptr %7, align 8, !tbaa !8
  %21 = load ptr, ptr %8, align 8, !tbaa !11
  %22 = call i32 @parse_options(i32 noundef %19, ptr noundef %20, ptr noundef %21, ptr noundef @sparse_checkout_set.builtin_sparse_checkout_set_options, ptr noundef @builtin_sparse_checkout_set_usage, i32 noundef 0)
  store i32 %22, ptr %6, align 4, !tbaa !4
  %23 = call i32 @update_modes(ptr noundef @set_opts, ptr noundef getelementptr inbounds nuw (%struct.sparse_checkout_set_opts, ptr @set_opts, i32 0, i32 1))
  %24 = icmp ne i32 %23, 0
  br i1 %24, label %25, label %26

25:                                               ; preds = %4
  store i32 1, ptr %5, align 4
  store i32 1, ptr %14, align 4
  br label %74

26:                                               ; preds = %4
  %27 = load i32, ptr @core_sparse_checkout_cone, align 4, !tbaa !4
  %28 = icmp ne i32 %27, 0
  br i1 %28, label %51, label %29

29:                                               ; preds = %26
  %30 = load i32, ptr getelementptr inbounds nuw (%struct.sparse_checkout_set_opts, ptr @set_opts, i32 0, i32 3), align 4, !tbaa !74
  %31 = icmp ne i32 %30, 0
  br i1 %31, label %51, label %32

32:                                               ; preds = %29
  %33 = load i32, ptr %6, align 4, !tbaa !4
  %34 = icmp eq i32 %33, 0
  br i1 %34, label %35, label %51

35:                                               ; preds = %32
  call void @llvm.lifetime.start.p0(i64 4, ptr %15) #9
  store i32 0, ptr %15, align 4, !tbaa !4
  br label %36

36:                                               ; preds = %47, %35
  %37 = load i32, ptr %15, align 4, !tbaa !4
  %38 = load i32, ptr %10, align 4, !tbaa !4
  %39 = icmp slt i32 %37, %38
  br i1 %39, label %41, label %40

40:                                               ; preds = %36
  store i32 2, ptr %14, align 4
  call void @llvm.lifetime.end.p0(i64 4, ptr %15) #9
  br label %50

41:                                               ; preds = %36
  %42 = load i32, ptr %15, align 4, !tbaa !4
  %43 = sext i32 %42 to i64
  %44 = getelementptr inbounds [3 x ptr], ptr %11, i64 0, i64 %43
  %45 = load ptr, ptr %44, align 8, !tbaa !11
  %46 = call ptr @strvec_push(ptr noundef %12, ptr noundef %45)
  br label %47

47:                                               ; preds = %41
  %48 = load i32, ptr %15, align 4, !tbaa !4
  %49 = add nsw i32 %48, 1
  store i32 %49, ptr %15, align 4, !tbaa !4
  br label %36, !llvm.loop !75

50:                                               ; preds = %40
  br label %70

51:                                               ; preds = %32, %29, %26
  call void @llvm.lifetime.start.p0(i64 4, ptr %16) #9
  store i32 0, ptr %16, align 4, !tbaa !4
  br label %52

52:                                               ; preds = %64, %51
  %53 = load i32, ptr %16, align 4, !tbaa !4
  %54 = load i32, ptr %6, align 4, !tbaa !4
  %55 = icmp slt i32 %53, %54
  br i1 %55, label %57, label %56

56:                                               ; preds = %52
  store i32 5, ptr %14, align 4
  call void @llvm.lifetime.end.p0(i64 4, ptr %16) #9
  br label %67

57:                                               ; preds = %52
  %58 = load ptr, ptr %7, align 8, !tbaa !8
  %59 = load i32, ptr %16, align 4, !tbaa !4
  %60 = sext i32 %59 to i64
  %61 = getelementptr inbounds ptr, ptr %58, i64 %60
  %62 = load ptr, ptr %61, align 8, !tbaa !11
  %63 = call ptr @strvec_push(ptr noundef %12, ptr noundef %62)
  br label %64

64:                                               ; preds = %57
  %65 = load i32, ptr %16, align 4, !tbaa !4
  %66 = add nsw i32 %65, 1
  store i32 %66, ptr %16, align 4, !tbaa !4
  br label %52, !llvm.loop !76

67:                                               ; preds = %56
  %68 = load ptr, ptr %8, align 8, !tbaa !11
  %69 = load i32, ptr getelementptr inbounds nuw (%struct.sparse_checkout_set_opts, ptr @set_opts, i32 0, i32 2), align 4, !tbaa !77
  call void @sanitize_paths(ptr noundef %12, ptr noundef %68, i32 noundef %69)
  br label %70

70:                                               ; preds = %67, %50
  %71 = load i32, ptr getelementptr inbounds nuw (%struct.sparse_checkout_set_opts, ptr @set_opts, i32 0, i32 3), align 4, !tbaa !74
  %72 = call i32 @modify_pattern_list(ptr noundef %12, i32 noundef %71, i32 noundef 0)
  store i32 %72, ptr %13, align 4, !tbaa !4
  call void @strvec_clear(ptr noundef %12)
  %73 = load i32, ptr %13, align 4, !tbaa !4
  store i32 %73, ptr %5, align 4
  store i32 1, ptr %14, align 4
  br label %74

74:                                               ; preds = %70, %25
  call void @llvm.lifetime.end.p0(i64 4, ptr %13) #9
  call void @llvm.lifetime.end.p0(i64 24, ptr %12) #9
  call void @llvm.lifetime.end.p0(i64 24, ptr %11) #9
  call void @llvm.lifetime.end.p0(i64 4, ptr %10) #9
  %75 = load i32, ptr %5, align 4
  ret i32 %75
}