; Function Attrs: nounwind uwtable
define internal i32 @sparse_checkout_set(i32 noundef %0, ptr noundef %1, ptr noundef %2, ptr readnone captures(none) %3) #0 {
  %5 = alloca %struct.strvec, align 8
  call void @llvm.lifetime.start.p0(i64 24, ptr nonnull %5) #13
  call void @llvm.memcpy.p0.p0.i64(ptr noundef nonnull align 8 dereferenceable(24) %5, ptr noundef nonnull align 8 dereferenceable(24) @__const.sparse_checkout_add.patterns, i64 24, i1 false)
  tail call void @setup_work_tree() #13
  %6 = load ptr, ptr @the_repository, align 8, !tbaa !17
  %7 = tail call i32 @repo_read_index(ptr noundef %6) #13
  store i32 -1, ptr @set_opts, align 4, !tbaa !64
  store i32 -1, ptr getelementptr inbounds nuw (i8, ptr @set_opts, i64 4), align 4, !tbaa !66
  %8 = tail call i32 @parse_options(i32 noundef %0, ptr noundef %1, ptr noundef %2, ptr noundef nonnull @sparse_checkout_set.builtin_sparse_checkout_set_options, ptr noundef nonnull @builtin_sparse_checkout_set_usage, i32 noundef 0) #13
  %9 = tail call fastcc i32 @update_modes(ptr noundef nonnull @set_opts, ptr noundef nonnull getelementptr inbounds nuw (i8, ptr @set_opts, i64 4))
  %.not = icmp eq i32 %9, 0
  br i1 %.not, label %10, label %25

10:                                               ; preds = %4
  %11 = load i32, ptr @core_sparse_checkout_cone, align 4, !tbaa !37
  %12 = icmp eq i32 %11, 0
  %13 = load i32, ptr getelementptr inbounds nuw (i8, ptr @set_opts, i64 12), align 4
  %14 = icmp eq i32 %13, 0
  %or.cond.not22 = select i1 %12, i1 %14, i1 false
  %15 = icmp eq i32 %8, 0
  %or.cond3 = select i1 %or.cond.not22, i1 %15, i1 false
  br i1 %or.cond3, label %.preheader, label %.preheader23

.preheader23:                                     ; preds = %10
  %16 = icmp sgt i32 %8, 0
  br i1 %16, label %.lr.ph.preheader, label %._crit_edge

.lr.ph.preheader:                                 ; preds = %.preheader23
  %wide.trip.count = zext nneg i32 %8 to i64
  br label %.lr.ph

.preheader:                                       ; preds = %10
  %17 = call ptr @strvec_push(ptr noundef nonnull %5, ptr noundef nonnull @.str.24) #13
  %18 = call ptr @strvec_push(ptr noundef nonnull %5, ptr noundef nonnull @.str.25) #13
  br label %.loopexit

._crit_edge:                                      ; preds = %.lr.ph, %.preheader23
  %19 = load i32, ptr getelementptr inbounds nuw (i8, ptr @set_opts, i64 8), align 4, !tbaa !67
  call fastcc void @sanitize_paths(ptr noundef %5, ptr noundef %2, i32 noundef %19)
  br label %.loopexit

.lr.ph:                                           ; preds = %.lr.ph.preheader, %.lr.ph
  %indvars.iv = phi i64 [ 0, %.lr.ph.preheader ], [ %indvars.iv.next, %.lr.ph ]
  %20 = getelementptr inbounds nuw ptr, ptr %1, i64 %indvars.iv
  %21 = load ptr, ptr %20, align 8, !tbaa !68
  %22 = call ptr @strvec_push(ptr noundef nonnull %5, ptr noundef %21) #13
  %indvars.iv.next = add nuw nsw i64 %indvars.iv, 1
  %exitcond.not = icmp eq i64 %indvars.iv.next, %wide.trip.count
  br i1 %exitcond.not, label %._crit_edge, label %.lr.ph, !llvm.loop !69

.loopexit:                                        ; preds = %.preheader, %._crit_edge
  %23 = load i32, ptr getelementptr inbounds nuw (i8, ptr @set_opts, i64 12), align 4, !tbaa !70
  %24 = call fastcc i32 @modify_pattern_list(ptr noundef %5, i32 noundef %23, i32 noundef 0)
  call void @strvec_clear(ptr noundef nonnull %5) #13
  br label %25

25:                                               ; preds = %4, %.loopexit
  %.019 = phi i32 [ %24, %.loopexit ], [ 1, %4 ]
  call void @llvm.lifetime.end.p0(i64 24, ptr nonnull %5) #13
  ret i32 %.019
}